target datalayout = "e-m:e-p270:32:32-p271:32:32-p272:64:64-i64:64-i128:128-f80:128-n8:16:32:64-S128"
target triple = "x86_64-pc-linux-gnu"

%"class.icu_77::CollationIterator::CEBuffer" = type { i32, %"class.icu_77::MaybeStackArray.0" }
%"class.icu_77::MaybeStackArray.0" = type { ptr, i32, i8, [40 x i64] }
%"class.icu_77::CollationIterator" = type <{ %"class.icu_77::UObject", ptr, ptr, %"class.icu_77::CollationIterator::CEBuffer", i32, [4 x i8], ptr, i32, i8, [3 x i8] }>
%"class.icu_77::UObject" = type { ptr }
%"class.icu_77::SkippedState" = type { [8 x i8], %"class.icu_77::UnicodeString", %"class.icu_77::UnicodeString", i32, i32, %"class.icu_77::UCharsTrie::State" }
%"class.icu_77::UnicodeString" = type { %"class.icu_77::Replaceable", %"union.icu_77::UnicodeString::StackBufferOrFields" }
%"class.icu_77::Replaceable" = type { %"class.icu_77::UObject" }
%"union.icu_77::UnicodeString::StackBufferOrFields" = type { %struct.anon.1, [32 x i8] }
%struct.anon.1 = type { i16, i32, i32, ptr }
%"class.icu_77::UCharsTrie::State" = type <{ ptr, ptr, i32, [4 x i8] }>

; Function Attrs: inlinehint mustprogress nounwind uwtable
define linkonce_odr noundef i32 @_ZNK6icu_7713UnicodeString14getShortLengthEv(ptr noundef nonnull align 8 dereferenceable(64) %0) #2 comdat align 2 {
  %2 = alloca ptr, align 8
  store ptr %0, ptr %2, align 8, !tbaa !139
  %3 = load ptr, ptr %2, align 8
  %4 = getelementptr inbounds nuw %"class.icu_77::UnicodeString", ptr %3, i32 0, i32 1
  %5 = getelementptr inbounds nuw %struct.anon.1, ptr %4, i32 0, i32 0
  %6 = load i16, ptr %5, align 8, !tbaa !62
  %7 = sext i16 %6 to i32
  %8 = ashr i32 %7, 5
  ret i32 %8
}

; Function Attrs: inlinehint mustprogress nounwind uwtable
define linkonce_odr noundef signext i8 @_ZNK6icu_7713UnicodeString14hasShortLengthEv(ptr noundef nonnull align 8 dereferenceable(64) %0) #2 comdat align 2 {
  %2 = alloca ptr, align 8
  store ptr %0, ptr %2, align 8, !tbaa !139
  %3 = load ptr, ptr %2, align 8
  %4 = getelementptr inbounds nuw %"class.icu_77::UnicodeString", ptr %3, i32 0, i32 1
  %5 = getelementptr inbounds nuw %struct.anon.1, ptr %4, i32 0, i32 0
  %6 = load i16, ptr %5, align 8, !tbaa !62
  %7 = sext i16 %6 to i32
  %8 = icmp sge i32 %7, 0
  %9 = zext i1 %8 to i8
  ret i8 %9
}

; Function Attrs: inlinehint mustprogress nounwind uwtable
define linkonce_odr noundef signext i8 @_ZNK6icu_7713UnicodeString7isEmptyEv(ptr noundef nonnull align 8 dereferenceable(64) %0) #2 comdat align 2 {
  %2 = alloca ptr, align 8
  store ptr %0, ptr %2, align 8, !tbaa !139
  %3 = load ptr, ptr %2, align 8
  %4 = getelementptr inbounds nuw %"class.icu_77::UnicodeString", ptr %3, i32 0, i32 1
  %5 = getelementptr inbounds nuw %struct.anon.1, ptr %4, i32 0, i32 0
  %6 = load i16, ptr %5, align 8, !tbaa !62
  %7 = sext i16 %6 to i32
  %8 = ashr i32 %7, 5
  %9 = icmp eq i32 %8, 0
  %10 = zext i1 %9 to i8
  ret i8 %10
}

; Function Attrs: inlinehint mustprogress uwtable
define linkonce_odr noundef i32 @_ZNK6icu_7713UnicodeString6lengthEv(ptr noundef nonnull align 8 dereferenceable(64) %0) #3 comdat align 2 {
  %2 = alloca ptr, align 8
  store ptr %0, ptr %2, align 8, !tbaa !139
  %3 = load ptr, ptr %2, align 8
  %4 = call noundef signext i8 @_ZNK6icu_7713UnicodeString14hasShortLengthEv(ptr noundef nonnull align 8 dereferenceable(64) %3)
  %5 = icmp ne i8 %4, 0
  br i1 %5, label %6, label %8

6:                                                ; preds = %1
  %7 = call noundef i32 @_ZNK6icu_7713UnicodeString14getShortLengthEv(ptr noundef nonnull align 8 dereferenceable(64) %3)
  br label %12

8:                                                ; preds = %1
  %9 = getelementptr inbounds nuw %"class.icu_77::UnicodeString", ptr %3, i32 0, i32 1
  %10 = getelementptr inbounds nuw %struct.anon.1, ptr %9, i32 0, i32 1
  %11 = load i32, ptr %10, align 4, !tbaa !62
  br label %12

12:                                               ; preds = %8, %6
  %13 = phi i32 [ %7, %6 ], [ %11, %8 ]
  ret i32 %13
}

; Function Attrs: mustprogress nounwind uwtable
define linkonce_odr void @_ZN6icu_7712SkippedState9incBeyondEv(ptr noundef nonnull align 8 dereferenceable(168) %0) #0 comdat align 2 {
  %2 = alloca ptr, align 8
  store ptr %0, ptr %2, align 8, !tbaa !56
  %3 = load ptr, ptr %2, align 8
  %4 = getelementptr inbounds nuw %"class.icu_77::SkippedState", ptr %3, i32 0, i32 3
  %5 = load i32, ptr %4, align 8, !tbaa !63
  %6 = add nsw i32 %5, 1
  store i32 %6, ptr %4, align 8, !tbaa !63
  ret void
}

; Function Attrs: mustprogress uwtable
define linkonce_odr noundef signext i8 @_ZNK6icu_7712SkippedState7isEmptyEv(ptr noundef nonnull align 8 dereferenceable(168) %0) #1 comdat align 2 {
  %2 = alloca ptr, align 8
  store ptr %0, ptr %2, align 8, !tbaa !56
  %3 = load ptr, ptr %2, align 8
  %4 = getelementptr inbounds nuw %"class.icu_77::SkippedState", ptr %3, i32 0, i32 1
  %5 = call noundef signext i8 @_ZNK6icu_7713UnicodeString7isEmptyEv(ptr noundef nonnull align 8 dereferenceable(64) %4)
  ret i8 %5
}

; Function Attrs: mustprogress uwtable
define linkonce_odr noundef i32 @_ZN6icu_7712SkippedState4nextEv(ptr noundef nonnull align 8 dereferenceable(168) %0) #1 comdat align 2 {
  %2 = alloca ptr, align 8
  %3 = alloca i32, align 4
  store ptr %0, ptr %2, align 8, !tbaa !56
  %4 = load ptr, ptr %2, align 8
  call void @llvm.lifetime.start.p0(i64 4, ptr %3) #11
  %5 = getelementptr inbounds nuw %"class.icu_77::SkippedState", ptr %4, i32 0, i32 1
  %6 = getelementptr inbounds nuw %"class.icu_77::SkippedState", ptr %4, i32 0, i32 3
  %7 = load i32, ptr %6, align 8, !tbaa !63
  %8 = call noundef i32 @_ZNK6icu_7713UnicodeString8char32AtEi(ptr noundef nonnull align 8 dereferenceable(64) %5, i32 noundef %7)
  store i32 %8, ptr %3, align 4, !tbaa !14
  %9 = load i32, ptr %3, align 4, !tbaa !14
  %10 = icmp ule i32 %9, 65535
  %11 = select i1 %10, i32 1, i32 2
  %12 = getelementptr inbounds nuw %"class.icu_77::SkippedState", ptr %4, i32 0, i32 3
  %13 = load i32, ptr %12, align 8, !tbaa !63
  %14 = add nsw i32 %13, %11
  store i32 %14, ptr %12, align 8, !tbaa !63
  %15 = load i32, ptr %3, align 4, !tbaa !14
  call void @llvm.lifetime.end.p0(i64 4, ptr %3) #11
  ret i32 %15
}

; Function Attrs: mustprogress uwtable
define linkonce_odr noundef signext i8 @_ZNK6icu_7712SkippedState7hasNextEv(ptr noundef nonnull align 8 dereferenceable(168) %0) #1 comdat align 2 {
  %2 = alloca ptr, align 8
  store ptr %0, ptr %2, align 8, !tbaa !56
  %3 = load ptr, ptr %2, align 8
  %4 = getelementptr inbounds nuw %"class.icu_77::SkippedState", ptr %3, i32 0, i32 3
  %5 = load i32, ptr %4, align 8, !tbaa !63
  %6 = getelementptr inbounds nuw %"class.icu_77::SkippedState", ptr %3, i32 0, i32 1
  %7 = call noundef i32 @_ZNK6icu_7713UnicodeString6lengthEv(ptr noundef nonnull align 8 dereferenceable(64) %6)
  %8 = icmp slt i32 %5, %7
  %9 = zext i1 %8 to i8
  ret i8 %9
}

; Function Attrs: mustprogress uwtable
define noundef i32 @_ZN6icu_7717CollationIterator20nextSkippedCodePointER10UErrorCode(ptr noundef nonnull align 8 dereferenceable(389) %0, ptr noundef nonnull align 4 dereferenceable(4) %1) #1 align 2 {
  %3 = alloca i32, align 4
  %4 = alloca ptr, align 8
  %5 = alloca ptr, align 8
  %6 = alloca i32, align 4
  store ptr %0, ptr %4, align 8, !tbaa !37
  store ptr %1, ptr %5, align 8, !tbaa !22
  %7 = load ptr, ptr %4, align 8
  %8 = getelementptr inbounds nuw %"class.icu_77::CollationIterator", ptr %7, i32 0, i32 6
  %9 = load ptr, ptr %8, align 8, !tbaa !49
  %10 = icmp ne ptr %9, null
  br i1 %10, label %11, label %20

11:                                               ; preds = %2
  %12 = getelementptr inbounds nuw %"class.icu_77::CollationIterator", ptr %7, i32 0, i32 6
  %13 = load ptr, ptr %12, align 8, !tbaa !49
  %14 = call noundef signext i8 @_ZNK6icu_7712SkippedState7hasNextEv(ptr noundef nonnull align 8 dereferenceable(168) %13)
  %15 = icmp ne i8 %14, 0
  br i1 %15, label %16, label %20

16:                                               ; preds = %11
  %17 = getelementptr inbounds nuw %"class.icu_77::CollationIterator", ptr %7, i32 0, i32 6
  %18 = load ptr, ptr %17, align 8, !tbaa !49
  %19 = call noundef i32 @_ZN6icu_7712SkippedState4nextEv(ptr noundef nonnull align 8 dereferenceable(168) %18)
  store i32 %19, ptr %3, align 4
  br label %58

20:                                               ; preds = %11, %2
  %21 = getelementptr inbounds nuw %"class.icu_77::CollationIterator", ptr %7, i32 0, i32 7
  %22 = load i32, ptr %21, align 8, !tbaa !50
  %23 = icmp eq i32 %22, 0
  br i1 %23, label %24, label %25

24:                                               ; preds = %20
  store i32 -1, ptr %3, align 4
  br label %58

25:                                               ; preds = %20
  call void @llvm.lifetime.start.p0(i64 4, ptr %6) #11
  %26 = load ptr, ptr %5, align 8, !tbaa !22
  %27 = load ptr, ptr %7, align 8, !tbaa !39
  %28 = getelementptr inbounds ptr, ptr %27, i64 6
  %29 = load ptr, ptr %28, align 8
  %30 = call noundef i32 %29(ptr noundef nonnull align 8 dereferenceable(389) %7, ptr noundef nonnull align 4 dereferenceable(4) %26)
  store i32 %30, ptr %6, align 4, !tbaa !14
  %31 = getelementptr inbounds nuw %"class.icu_77::CollationIterator", ptr %7, i32 0, i32 6
  %32 = load ptr, ptr %31, align 8, !tbaa !49
  %33 = icmp ne ptr %32, null
  br i1 %33, label %34, label %45

34:                                               ; preds = %25
  %35 = getelementptr inbounds nuw %"class.icu_77::CollationIterator", ptr %7, i32 0, i32 6
  %36 = load ptr, ptr %35, align 8, !tbaa !49
  %37 = call noundef signext i8 @_ZNK6icu_7712SkippedState7isEmptyEv(ptr noundef nonnull align 8 dereferenceable(168) %36)
  %38 = icmp ne i8 %37, 0
  br i1 %38, label %45, label %39

39:                                               ; preds = %34
  %40 = load i32, ptr %6, align 4, !tbaa !14
  %41 = icmp sge i32 %40, 0
  br i1 %41, label %42, label %45

42:                                               ; preds = %39
  %43 = getelementptr inbounds nuw %"class.icu_77::CollationIterator", ptr %7, i32 0, i32 6
  %44 = load ptr, ptr %43, align 8, !tbaa !49
  call void @_ZN6icu_7712SkippedState9incBeyondEv(ptr noundef nonnull align 8 dereferenceable(168) %44)
  br label %45

45:                                               ; preds = %42, %39, %34, %25
  %46 = getelementptr inbounds nuw %"class.icu_77::CollationIterator", ptr %7, i32 0, i32 7
  %47 = load i32, ptr %46, align 8, !tbaa !50
  %48 = icmp sgt i32 %47, 0
  br i1 %48, label %49, label %56

49:                                               ; preds = %45
  %50 = load i32, ptr %6, align 4, !tbaa !14
  %51 = icmp sge i32 %50, 0
  br i1 %51, label %52, label %56

52:                                               ; preds = %49
  %53 = getelementptr inbounds nuw %"class.icu_77::CollationIterator", ptr %7, i32 0, i32 7
  %54 = load i32, ptr %53, align 8, !tbaa !50
  %55 = add nsw i32 %54, -1
  store i32 %55, ptr %53, align 8, !tbaa !50
  br label %56

56:                                               ; preds = %52, %49, %45
  %57 = load i32, ptr %6, align 4, !tbaa !14
  store i32 %57, ptr %3, align 4
  call void @llvm.lifetime.end.p0(i64 4, ptr %6) #11
  br label %58

58:                                               ; preds = %56, %24, %16
  %59 = load i32, ptr %3, align 4
  ret i32 %59
}