; Function Attrs: mustprogress uwtable
define noundef i32 @_ZN6icu_7717CollationIterator20nextSkippedCodePointER10UErrorCode(ptr noundef nonnull align 8 dereferenceable(389) %0, ptr noundef nonnull align 4 dereferenceable(4) %1) local_unnamed_addr #1 align 2 {
  %3 = getelementptr inbounds nuw i8, ptr %0, i64 376
  %4 = load ptr, ptr %3, align 8, !tbaa !34
  %.not = icmp eq ptr %4, null
  br i1 %.not, label %23, label %5

5:                                                ; preds = %2
  %6 = getelementptr inbounds nuw i8, ptr %4, i64 136
  %7 = load i32, ptr %6, align 8, !tbaa !45
  %8 = getelementptr inbounds nuw i8, ptr %4, i64 16
  %9 = load i16, ptr %8, align 8, !tbaa !43
  %10 = icmp slt i16 %9, 0
  %11 = ashr i16 %9, 5
  %12 = sext i16 %11 to i32
  %13 = getelementptr inbounds nuw i8, ptr %4, i64 20
  %14 = load i32, ptr %13, align 4
  %15 = select i1 %10, i32 %14, i32 %12
  %.not13 = icmp slt i32 %7, %15
  br i1 %.not13, label %16, label %23

16:                                               ; preds = %5
  %17 = getelementptr inbounds nuw i8, ptr %4, i64 8
  %18 = tail call noundef i32 @_ZNK6icu_7713UnicodeString8char32AtEi(ptr noundef nonnull align 8 dereferenceable(64) %17, i32 noundef %7)
  %19 = icmp ult i32 %18, 65536
  %20 = select i1 %19, i32 1, i32 2
  %21 = load i32, ptr %6, align 8, !tbaa !45
  %22 = add nsw i32 %20, %21
  store i32 %22, ptr %6, align 8, !tbaa !45
  br label %48

23:                                               ; preds = %5, %2
  %24 = getelementptr inbounds nuw i8, ptr %0, i64 384
  %25 = load i32, ptr %24, align 8, !tbaa !35
  %26 = icmp eq i32 %25, 0
  br i1 %26, label %48, label %27

27:                                               ; preds = %23
  %28 = load ptr, ptr %0, align 8, !tbaa !24
  %29 = getelementptr inbounds nuw i8, ptr %28, i64 48
  %30 = load ptr, ptr %29, align 8
  %31 = tail call noundef i32 %30(ptr noundef nonnull align 8 dereferenceable(389) %0, ptr noundef nonnull align 4 dereferenceable(4) %1)
  %32 = load ptr, ptr %3, align 8, !tbaa !34
  %.not12 = icmp eq ptr %32, null
  br i1 %.not12, label %42, label %33

33:                                               ; preds = %27
  %34 = getelementptr inbounds nuw i8, ptr %32, i64 16
  %35 = load i16, ptr %34, align 8, !tbaa !43
  %36 = icmp ugt i16 %35, 31
  %37 = icmp sgt i32 %31, -1
  %or.cond = and i1 %37, %36
  br i1 %or.cond, label %38, label %42

38:                                               ; preds = %33
  %39 = getelementptr inbounds nuw i8, ptr %32, i64 136
  %40 = load i32, ptr %39, align 8, !tbaa !45
  %41 = add nsw i32 %40, 1
  store i32 %41, ptr %39, align 8, !tbaa !45
  br label %42

42:                                               ; preds = %38, %33, %27
  %43 = load i32, ptr %24, align 8, !tbaa !35
  %44 = icmp sgt i32 %43, 0
  %45 = icmp sgt i32 %31, -1
  %or.cond3 = and i1 %45, %44
  br i1 %or.cond3, label %46, label %48

46:                                               ; preds = %42
  %47 = add nsw i32 %43, -1
  store i32 %47, ptr %24, align 8, !tbaa !35
  br label %48

48:                                               ; preds = %42, %46, %23, %16
  %.0 = phi i32 [ %18, %16 ], [ -1, %23 ], [ %31, %46 ], [ %31, %42 ]
  ret i32 %.0
}